target datalayout = "e-m:e-p270:32:32-p271:32:32-p272:64:64-i64:64-i128:128-f80:128-n8:16:32:64-S128"
target triple = "x86_64-pc-linux-gnu"

%struct.expert_field = type { i32, i32 }

@hf_cip_svalidator_timeout_multiplier_size = internal global i32 0, align 4
@hf_cip_svalidator_timeout_multiplier_item = internal global i32 0, align 4
@ei_mal_svalidator_timeout_multiplier = internal global %struct.expert_field zeroinitializer, align 4

; Function Attrs: null_pointer_is_valid sspstrong uwtable
define internal i32 @dissect_s_validator_timeout_multiplier(ptr noundef %0, ptr noundef %1, ptr noundef %2, ptr noundef %3, i32 noundef %4, i32 noundef %5) #0 {
  %7 = alloca i32, align 4
  %8 = alloca ptr, align 8
  %9 = alloca ptr, align 8
  %10 = alloca ptr, align 8
  %11 = alloca ptr, align 8
  %12 = alloca i32, align 4
  %13 = alloca i32, align 4
  %14 = alloca i32, align 4
  %15 = alloca i32, align 4
  %16 = alloca i32, align 4
  store ptr %0, ptr %8, align 8
  store ptr %1, ptr %9, align 8
  store ptr %2, ptr %10, align 8
  store ptr %3, ptr %11, align 8
  store i32 %4, ptr %12, align 4
  store i32 %5, ptr %13, align 4
  call void @llvm.lifetime.start.p0(i64 4, ptr %14) #11
  call void @llvm.lifetime.start.p0(i64 4, ptr %15) #11
  %17 = load ptr, ptr %9, align 8
  %18 = load i32, ptr @hf_cip_svalidator_timeout_multiplier_size, align 4
  %19 = load ptr, ptr %11, align 8
  %20 = load i32, ptr %12, align 4
  %21 = call ptr @proto_tree_add_item(ptr noundef %17, i32 noundef %18, ptr noundef %19, i32 noundef %20, i32 noundef 1, i32 noundef -2147483648)
  %22 = load ptr, ptr %11, align 8
  %23 = load i32, ptr %12, align 4
  %24 = call zeroext i8 @tvb_get_uint8(ptr noundef %22, i32 noundef %23)
  %25 = zext i8 %24 to i32
  store i32 %25, ptr %15, align 4
  %26 = load i32, ptr %13, align 4
  %27 = load i32, ptr %15, align 4
  %28 = add i32 %27, 1
  %29 = icmp slt i32 %26, %28
  br i1 %29, label %30, label %35

30:                                               ; preds = %6
  %31 = load ptr, ptr %8, align 8
  %32 = load ptr, ptr %10, align 8
  %33 = call ptr @expert_add_info(ptr noundef %31, ptr noundef %32, ptr noundef @ei_mal_svalidator_timeout_multiplier)
  %34 = load i32, ptr %13, align 4
  store i32 %34, ptr %7, align 4
  store i32 1, ptr %16, align 4
  br label %55

35:                                               ; preds = %6
  store i32 0, ptr %14, align 4
  br label %36

36:                                               ; preds = %49, %35
  %37 = load i32, ptr %14, align 4
  %38 = load i32, ptr %15, align 4
  %39 = icmp slt i32 %37, %38
  br i1 %39, label %40, label %52

40:                                               ; preds = %36
  %41 = load ptr, ptr %9, align 8
  %42 = load i32, ptr @hf_cip_svalidator_timeout_multiplier_item, align 4
  %43 = load ptr, ptr %11, align 8
  %44 = load i32, ptr %12, align 4
  %45 = add i32 %44, 1
  %46 = load i32, ptr %14, align 4
  %47 = add i32 %45, %46
  %48 = call ptr @proto_tree_add_item(ptr noundef %41, i32 noundef %42, ptr noundef %43, i32 noundef %47, i32 noundef 1, i32 noundef -2147483648)
  br label %49

49:                                               ; preds = %40
  %50 = load i32, ptr %14, align 4
  %51 = add i32 %50, 1
  store i32 %51, ptr %14, align 4
  br label %36, !llvm.loop !10

52:                                               ; preds = %36
  %53 = load i32, ptr %15, align 4
  %54 = add i32 %53, 1
  store i32 %54, ptr %7, align 4
  store i32 1, ptr %16, align 4
  br label %55

55:                                               ; preds = %52, %30
  call void @llvm.lifetime.end.p0(i64 4, ptr %15) #11
  call void @llvm.lifetime.end.p0(i64 4, ptr %14) #11
  %56 = load i32, ptr %7, align 4
  ret i32 %56
}