; Function Attrs: null_pointer_is_valid sspstrong uwtable
define internal range(i32 -2147483648, 257) i32 @dissect_s_validator_timeout_multiplier(ptr noundef %0, ptr noundef %1, ptr noundef %2, ptr noundef %3, i32 noundef %4, i32 noundef %5) #2 {
  %7 = load i32, ptr @hf_cip_svalidator_timeout_multiplier_size, align 4
  %8 = tail call ptr @proto_tree_add_item(ptr noundef %1, i32 noundef %7, ptr noundef %3, i32 noundef %4, i32 noundef 1, i32 noundef -2147483648)
  %9 = tail call zeroext i8 @tvb_get_uint8(ptr noundef %3, i32 noundef %4)
  %10 = zext i8 %9 to i32
  %11 = add nuw nsw i32 %10, 1
  %.not = icmp sgt i32 %5, %10
  br i1 %.not, label %.preheader, label %13

.preheader:                                       ; preds = %6
  %.not22 = icmp eq i8 %9, 0
  br i1 %.not22, label %.loopexit, label %.lr.ph

.lr.ph:                                           ; preds = %.preheader
  %12 = add i32 %4, 1
  br label %15

13:                                               ; preds = %6
  %14 = tail call ptr @expert_add_info(ptr noundef %0, ptr noundef %2, ptr noundef nonnull @ei_mal_svalidator_timeout_multiplier)
  br label %.loopexit

15:                                               ; preds = %.lr.ph, %15
  %.01821 = phi i32 [ 0, %.lr.ph ], [ %19, %15 ]
  %16 = load i32, ptr @hf_cip_svalidator_timeout_multiplier_item, align 4
  %17 = add i32 %12, %.01821
  %18 = tail call ptr @proto_tree_add_item(ptr noundef %1, i32 noundef %16, ptr noundef %3, i32 noundef %17, i32 noundef 1, i32 noundef -2147483648)
  %19 = add nuw nsw i32 %.01821, 1
  %exitcond.not = icmp eq i32 %19, %10
  br i1 %exitcond.not, label %.loopexit, label %15, !llvm.loop !10

.loopexit:                                        ; preds = %15, %.preheader, %13
  %.0 = phi i32 [ %5, %13 ], [ %11, %.preheader ], [ %11, %15 ]
  ret i32 %.0
}